target datalayout = "e-m:e-p270:32:32-p271:32:32-p272:64:64-i64:64-i128:128-f80:128-n8:16:32:64-S128"
target triple = "x86_64-pc-linux-gnu"

%struct.H5O_shared_t = type { i32, ptr, i32, %union.anon }
%union.anon = type { %struct.H5O_mesg_loc_t }
%struct.H5O_mesg_loc_t = type { i32, i64 }

; Function Attrs: nounwind uwtable
define i32 @H5O__shared_encode(ptr noundef %0, ptr noundef %1, ptr noundef %2) #0 {
  %4 = alloca ptr, align 8
  %5 = alloca ptr, align 8
  %6 = alloca ptr, align 8
  %7 = alloca i32, align 4
  store ptr %0, ptr %4, align 8
  store ptr %1, ptr %5, align 8
  store ptr %2, ptr %6, align 8
  %8 = load ptr, ptr %6, align 8
  %9 = getelementptr inbounds %struct.H5O_shared_t, ptr %8, i32 0, i32 0
  %10 = load i32, ptr %9, align 8
  %11 = icmp eq i32 %10, 1
  br i1 %11, label %12, label %13

12:                                               ; preds = %3
  store i32 3, ptr %7, align 4
  br label %14

13:                                               ; preds = %3
  store i32 2, ptr %7, align 4
  br label %14

14:                                               ; preds = %13, %12
  %15 = load i32, ptr %7, align 4
  %16 = trunc i32 %15 to i8
  %17 = load ptr, ptr %5, align 8
  %18 = getelementptr inbounds i8, ptr %17, i32 1
  store ptr %18, ptr %5, align 8
  store i8 %16, ptr %17, align 1
  %19 = load ptr, ptr %6, align 8
  %20 = getelementptr inbounds %struct.H5O_shared_t, ptr %19, i32 0, i32 0
  %21 = load i32, ptr %20, align 8
  %22 = trunc i32 %21 to i8
  %23 = load ptr, ptr %5, align 8
  %24 = getelementptr inbounds i8, ptr %23, i32 1
  store ptr %24, ptr %5, align 8
  store i8 %22, ptr %23, align 1
  %25 = load ptr, ptr %6, align 8
  %26 = getelementptr inbounds %struct.H5O_shared_t, ptr %25, i32 0, i32 0
  %27 = load i32, ptr %26, align 8
  %28 = icmp eq i32 %27, 1
  br i1 %28, label %29, label %33

29:                                               ; preds = %14
  %30 = load ptr, ptr %5, align 8
  %31 = load ptr, ptr %6, align 8
  %32 = getelementptr inbounds %struct.H5O_shared_t, ptr %31, i32 0, i32 3
  call void @llvm.memcpy.p0.p0.i64(ptr align 1 %30, ptr align 8 %32, i64 8, i1 false)
  br label %39

33:                                               ; preds = %14
  %34 = load ptr, ptr %4, align 8
  %35 = load ptr, ptr %6, align 8
  %36 = getelementptr inbounds %struct.H5O_shared_t, ptr %35, i32 0, i32 3
  %37 = getelementptr inbounds %struct.H5O_mesg_loc_t, ptr %36, i32 0, i32 1
  %38 = load i64, ptr %37, align 8
  call void @H5F_addr_encode(ptr noundef %34, ptr noundef %5, i64 noundef %38)
  br label %39

39:                                               ; preds = %33, %29
  ret i32 0
}