; Function Attrs: nounwind uwtable
define noundef i32 @H5O__shared_encode(ptr noundef %0, ptr noundef %1, ptr nocapture noundef readonly %2) local_unnamed_addr #0 {
  %4 = alloca ptr, align 8
  %5 = load i32, ptr %2, align 8
  %6 = icmp eq i32 %5, 1
  %. = select i1 %6, i8 3, i8 2
  %7 = getelementptr inbounds i8, ptr %1, i64 1
  store i8 %., ptr %1, align 1
  %8 = load i32, ptr %2, align 8
  %9 = trunc i32 %8 to i8
  %10 = getelementptr inbounds i8, ptr %1, i64 2
  store ptr %10, ptr %4, align 8
  store i8 %9, ptr %7, align 1
  %11 = load i32, ptr %2, align 8
  %12 = icmp eq i32 %11, 1
  br i1 %12, label %13, label %16

13:                                               ; preds = %3
  %14 = getelementptr inbounds i8, ptr %2, i64 24
  %15 = load i64, ptr %14, align 8
  store i64 %15, ptr %10, align 1
  br label %19

16:                                               ; preds = %3
  %17 = getelementptr inbounds i8, ptr %2, i64 32
  %18 = load i64, ptr %17, align 8
  call void @H5F_addr_encode(ptr noundef %0, ptr noundef nonnull %4, i64 noundef %18) #7
  br label %19

19:                                               ; preds = %16, %13
  ret i32 0
}